; Function Attrs: mustprogress nounwind uwtable
define dso_local noundef zeroext i1 @_ZN5clang21TemplateParameterList28shouldIncludeTypeForArgumentERKNS_14PrintingPolicyEPKS0_j(ptr noundef nonnull readonly align 8 captures(none) dereferenceable(16) %0, ptr noundef readonly %1, i32 noundef %2) local_unnamed_addr #0 align 2 {
  %.not = icmp eq ptr %1, null
  br i1 %.not, label %27, label %4

4:                                                ; preds = %3
  %5 = getelementptr inbounds nuw i8, ptr %1, i64 12
  %6 = load i32, ptr %5, align 4
  %7 = and i32 %6, 536870911
  %.not12 = icmp ult i32 %2, %7
  br i1 %.not12, label %8, label %27

8:                                                ; preds = %4
  %9 = load i64, ptr %0, align 8
  %10 = and i64 %9, 4398046511104
  %.not13 = icmp eq i64 %10, 0
  br i1 %.not13, label %11, label %27

11:                                               ; preds = %8
  %12 = getelementptr inbounds nuw i8, ptr %1, i64 16
  %13 = zext nneg i32 %2 to i64
  %14 = getelementptr inbounds nuw ptr, ptr %12, i64 %13
  %15 = load ptr, ptr %14, align 8
  %16 = getelementptr inbounds nuw i8, ptr %15, i64 28
  %17 = load i32, ptr %16, align 4
  %18 = and i32 %17, 127
  %19 = icmp ne i32 %18, 44
  %.not1416 = icmp eq ptr %15, null
  %.not14 = or i1 %.not1416, %19
  br i1 %.not14, label %26, label %20

20:                                               ; preds = %11
  %21 = getelementptr inbounds nuw i8, ptr %15, i64 48
  %.sroa.0.0.copyload.i = load i64, ptr %21, align 8
  %22 = and i64 %.sroa.0.0.copyload.i, -16
  %23 = inttoptr i64 %22 to ptr
  %24 = load ptr, ptr %23, align 16
  %25 = tail call noundef ptr @_ZNK5clang4Type23getContainedDeducedTypeEv(ptr noundef nonnull align 16 dereferenceable(24) %24) #21
  %.not15 = icmp eq ptr %25, null
  br i1 %.not15, label %26, label %27

26:                                               ; preds = %20, %11
  br label %27

27:                                               ; preds = %20, %3, %4, %8, %26
  %.0 = phi i1 [ false, %26 ], [ true, %8 ], [ true, %4 ], [ true, %3 ], [ true, %20 ]
  ret i1 %.0
}